target datalayout = "e-m:e-p270:32:32-p271:32:32-p272:64:64-i64:64-i128:128-f80:128-n8:16:32:64-S128"
target triple = "x86_64-pc-linux-gnu"

%struct.Vec_Int_t_ = type { i32, i32, ptr }
%struct.Sbd_Man_t_ = type { ptr, ptr, ptr, ptr, ptr, ptr, ptr, [4 x ptr], ptr, ptr, ptr, [6 x i32], i32, i32, i64, i64, i64, i64, i64, i64, i64, i64, i64, ptr, ptr, i32, i32, ptr, ptr, ptr, ptr, ptr, ptr, ptr, ptr, [2 x ptr], ptr, ptr }

@.str.3 = private unnamed_addr constant [2 x i8] c"\0A\00", align 1
@.str.7 = private unnamed_addr constant [3 x i8] c"%d\00", align 1
@.str.13 = private unnamed_addr constant [7 x i8] c"%2d : \00", align 1
@.str.14 = private unnamed_addr constant [4 x i8] c"%d \00", align 1

; Function Attrs: inlinehint nounwind uwtable
define internal i32 @Vec_IntEntry(ptr noundef %0, i32 noundef %1) #3 {
  %3 = alloca ptr, align 8
  %4 = alloca i32, align 4
  store ptr %0, ptr %3, align 8, !tbaa !52
  store i32 %1, ptr %4, align 4, !tbaa !29
  %5 = load ptr, ptr %3, align 8, !tbaa !52
  %6 = getelementptr inbounds nuw %struct.Vec_Int_t_, ptr %5, i32 0, i32 2
  %7 = load ptr, ptr %6, align 8, !tbaa !70
  %8 = load i32, ptr %4, align 4, !tbaa !29
  %9 = sext i32 %8 to i64
  %10 = getelementptr inbounds i32, ptr %7, i64 %9
  %11 = load i32, ptr %10, align 4, !tbaa !29
  ret i32 %11
}

; Function Attrs: nounwind uwtable
define void @Sbd_ManMatrPrint(ptr noundef %0, ptr noundef %1, i32 noundef %2, i32 noundef %3) #0 {
  %5 = alloca ptr, align 8
  %6 = alloca ptr, align 8
  %7 = alloca i32, align 4
  %8 = alloca i32, align 4
  %9 = alloca i32, align 4
  %10 = alloca i32, align 4
  store ptr %0, ptr %5, align 8, !tbaa !73
  store ptr %1, ptr %6, align 8, !tbaa !116
  store i32 %2, ptr %7, align 4, !tbaa !29
  store i32 %3, ptr %8, align 4, !tbaa !29
  call void @llvm.lifetime.start.p0(i64 4, ptr %9) #13
  call void @llvm.lifetime.start.p0(i64 4, ptr %10) #13
  store i32 0, ptr %9, align 4, !tbaa !29
  br label %11

11:                                               ; preds = %67, %4
  %12 = load i32, ptr %9, align 4, !tbaa !29
  %13 = load i32, ptr %7, align 4, !tbaa !29
  %14 = icmp sle i32 %12, %13
  br i1 %14, label %15, label %70

15:                                               ; preds = %11
  %16 = load i32, ptr %9, align 4, !tbaa !29
  %17 = call i32 (ptr, ...) @printf(ptr noundef @.str.13, i32 noundef %16)
  %18 = load i32, ptr %9, align 4, !tbaa !29
  %19 = load i32, ptr %7, align 4, !tbaa !29
  %20 = icmp eq i32 %18, %19
  br i1 %20, label %21, label %29

21:                                               ; preds = %15
  %22 = load ptr, ptr %5, align 8, !tbaa !73
  %23 = getelementptr inbounds nuw %struct.Sbd_Man_t_, ptr %22, i32 0, i32 3
  %24 = load ptr, ptr %23, align 8, !tbaa !83
  %25 = load ptr, ptr %5, align 8, !tbaa !73
  %26 = getelementptr inbounds nuw %struct.Sbd_Man_t_, ptr %25, i32 0, i32 25
  %27 = load i32, ptr %26, align 8, !tbaa !139
  %28 = call i32 @Vec_IntEntry(ptr noundef %24, i32 noundef %27)
  br label %43

29:                                               ; preds = %15
  %30 = load ptr, ptr %5, align 8, !tbaa !73
  %31 = getelementptr inbounds nuw %struct.Sbd_Man_t_, ptr %30, i32 0, i32 3
  %32 = load ptr, ptr %31, align 8, !tbaa !83
  %33 = load ptr, ptr %5, align 8, !tbaa !73
  %34 = getelementptr inbounds nuw %struct.Sbd_Man_t_, ptr %33, i32 0, i32 29
  %35 = load ptr, ptr %34, align 8, !tbaa !92
  %36 = load ptr, ptr %5, align 8, !tbaa !73
  %37 = getelementptr inbounds nuw %struct.Sbd_Man_t_, ptr %36, i32 0, i32 32
  %38 = load ptr, ptr %37, align 8, !tbaa !95
  %39 = load i32, ptr %9, align 4, !tbaa !29
  %40 = call i32 @Vec_IntEntry(ptr noundef %38, i32 noundef %39)
  %41 = call i32 @Vec_IntEntry(ptr noundef %35, i32 noundef %40)
  %42 = call i32 @Vec_IntEntry(ptr noundef %32, i32 noundef %41)
  br label %43

43:                                               ; preds = %29, %21
  %44 = phi i32 [ %28, %21 ], [ %42, %29 ]
  %45 = call i32 (ptr, ...) @printf(ptr noundef @.str.14, i32 noundef %44)
  store i32 0, ptr %10, align 4, !tbaa !29
  br label %46

46:                                               ; preds = %62, %43
  %47 = load i32, ptr %10, align 4, !tbaa !29
  %48 = load i32, ptr %8, align 4, !tbaa !29
  %49 = icmp slt i32 %47, %48
  br i1 %49, label %50, label %65

50:                                               ; preds = %46
  %51 = load ptr, ptr %6, align 8, !tbaa !116
  %52 = load i32, ptr %9, align 4, !tbaa !29
  %53 = sext i32 %52 to i64
  %54 = getelementptr inbounds i64, ptr %51, i64 %53
  %55 = load i64, ptr %54, align 8, !tbaa !101
  %56 = load i32, ptr %10, align 4, !tbaa !29
  %57 = zext i32 %56 to i64
  %58 = lshr i64 %55, %57
  %59 = and i64 %58, 1
  %60 = trunc i64 %59 to i32
  %61 = call i32 (ptr, ...) @printf(ptr noundef @.str.7, i32 noundef %60)
  br label %62

62:                                               ; preds = %50
  %63 = load i32, ptr %10, align 4, !tbaa !29
  %64 = add nsw i32 %63, 1
  store i32 %64, ptr %10, align 4, !tbaa !29
  br label %46, !llvm.loop !176

65:                                               ; preds = %46
  %66 = call i32 (ptr, ...) @printf(ptr noundef @.str.3)
  br label %67

67:                                               ; preds = %65
  %68 = load i32, ptr %9, align 4, !tbaa !29
  %69 = add nsw i32 %68, 1
  store i32 %69, ptr %9, align 4, !tbaa !29
  br label %11, !llvm.loop !177

70:                                               ; preds = %11
  %71 = call i32 (ptr, ...) @printf(ptr noundef @.str.3)
  call void @llvm.lifetime.end.p0(i64 4, ptr %10) #13
  call void @llvm.lifetime.end.p0(i64 4, ptr %9) #13
  ret void
}