; Function Attrs: nofree nounwind uwtable
define void @Sbd_ManMatrPrint(ptr noundef readonly captures(none) %0, ptr noundef readonly captures(none) %1, i32 noundef %2, i32 noundef %3) local_unnamed_addr #10 {
  %.not24 = icmp slt i32 %2, 0
  br i1 %.not24, label %._crit_edge28, label %.lr.ph27

.lr.ph27:                                         ; preds = %4
  %5 = getelementptr inbounds nuw i8, ptr %0, i64 24
  %6 = getelementptr inbounds nuw i8, ptr %0, i64 256
  %7 = getelementptr inbounds nuw i8, ptr %0, i64 280
  %8 = getelementptr inbounds nuw i8, ptr %0, i64 232
  %9 = icmp sgt i32 %3, 0
  %10 = zext nneg i32 %2 to i64
  %11 = add nuw i32 %2, 1
  %wide.trip.count39 = zext i32 %11 to i64
  br i1 %9, label %.lr.ph27.split.us.preheader, label %.lr.ph27.split

.lr.ph27.split.us.preheader:                      ; preds = %.lr.ph27
  %wide.trip.count34 = zext nneg i32 %3 to i64
  br label %.lr.ph27.split.us

.lr.ph27.split.us:                                ; preds = %.lr.ph27.split.us.preheader, %._crit_edge.us
  %indvars.iv36 = phi i64 [ 0, %.lr.ph27.split.us.preheader ], [ %indvars.iv.next37, %._crit_edge.us ]
  %12 = trunc nuw nsw i64 %indvars.iv36 to i32
  %13 = tail call i32 (ptr, ...) @printf(ptr noundef nonnull dereferenceable(1) @.str.13, i32 noundef %12)
  %14 = icmp eq i64 %indvars.iv36, %10
  %15 = load ptr, ptr %5, align 8, !tbaa !77
  br i1 %14, label %.lr.ph.us, label %16

16:                                               ; preds = %.lr.ph27.split.us
  %17 = load ptr, ptr %6, align 8, !tbaa !91
  %18 = load ptr, ptr %7, align 8, !tbaa !94
  %19 = getelementptr i8, ptr %18, i64 8
  %.val21.us = load ptr, ptr %19, align 8, !tbaa !49
  %20 = getelementptr inbounds nuw i32, ptr %.val21.us, i64 %indvars.iv36
  %21 = load i32, ptr %20, align 4, !tbaa !50
  %22 = getelementptr i8, ptr %17, i64 8
  %.val20.us = load ptr, ptr %22, align 8, !tbaa !49
  %23 = sext i32 %21 to i64
  %24 = getelementptr inbounds i32, ptr %.val20.us, i64 %23
  br label %.lr.ph.us

.lr.ph.us:                                        ; preds = %.lr.ph27.split.us, %16
  %.sink42.in = phi ptr [ %24, %16 ], [ %8, %.lr.ph27.split.us ]
  %.sink42 = load i32, ptr %.sink42.in, align 4, !tbaa !50
  %25 = getelementptr i8, ptr %15, i64 8
  %.val22.us = load ptr, ptr %25, align 8, !tbaa !49
  %26 = sext i32 %.sink42 to i64
  %27 = getelementptr inbounds i32, ptr %.val22.us, i64 %26
  %28 = load i32, ptr %27, align 4, !tbaa !50
  %29 = tail call i32 (ptr, ...) @printf(ptr noundef nonnull dereferenceable(1) @.str.14, i32 noundef %28)
  %30 = getelementptr inbounds nuw i64, ptr %1, i64 %indvars.iv36
  br label %31

31:                                               ; preds = %.lr.ph.us, %31
  %indvars.iv31 = phi i64 [ 0, %.lr.ph.us ], [ %indvars.iv.next32, %31 ]
  %32 = load i64, ptr %30, align 8, !tbaa !100
  %33 = lshr i64 %32, %indvars.iv31
  %34 = trunc i64 %33 to i32
  %35 = and i32 %34, 1
  %36 = tail call i32 (ptr, ...) @printf(ptr noundef nonnull dereferenceable(1) @.str.7, i32 noundef %35)
  %indvars.iv.next32 = add nuw nsw i64 %indvars.iv31, 1
  %exitcond35.not = icmp eq i64 %indvars.iv.next32, %wide.trip.count34
  br i1 %exitcond35.not, label %._crit_edge.us, label %31, !llvm.loop !164

._crit_edge.us:                                   ; preds = %31
  %putchar19.us = tail call i32 @putchar(i32 10)
  %indvars.iv.next37 = add nuw nsw i64 %indvars.iv36, 1
  %exitcond40.not = icmp eq i64 %indvars.iv.next37, %wide.trip.count39
  br i1 %exitcond40.not, label %._crit_edge28, label %.lr.ph27.split.us, !llvm.loop !165

.lr.ph27.split:                                   ; preds = %.lr.ph27, %50
  %indvars.iv = phi i64 [ %indvars.iv.next, %50 ], [ 0, %.lr.ph27 ]
  %37 = trunc nuw nsw i64 %indvars.iv to i32
  %38 = tail call i32 (ptr, ...) @printf(ptr noundef nonnull dereferenceable(1) @.str.13, i32 noundef %37)
  %39 = icmp eq i64 %indvars.iv, %10
  %40 = load ptr, ptr %5, align 8, !tbaa !77
  br i1 %39, label %50, label %41

41:                                               ; preds = %.lr.ph27.split
  %42 = load ptr, ptr %6, align 8, !tbaa !91
  %43 = load ptr, ptr %7, align 8, !tbaa !94
  %44 = getelementptr i8, ptr %43, i64 8
  %.val21 = load ptr, ptr %44, align 8, !tbaa !49
  %45 = getelementptr inbounds nuw i32, ptr %.val21, i64 %indvars.iv
  %46 = load i32, ptr %45, align 4, !tbaa !50
  %47 = getelementptr i8, ptr %42, i64 8
  %.val20 = load ptr, ptr %47, align 8, !tbaa !49
  %48 = sext i32 %46 to i64
  %49 = getelementptr inbounds i32, ptr %.val20, i64 %48
  br label %50

50:                                               ; preds = %.lr.ph27.split, %41
  %.sink43.in = phi ptr [ %49, %41 ], [ %8, %.lr.ph27.split ]
  %.sink43 = load i32, ptr %.sink43.in, align 4, !tbaa !50
  %51 = getelementptr i8, ptr %40, i64 8
  %.val = load ptr, ptr %51, align 8, !tbaa !49
  %52 = sext i32 %.sink43 to i64
  %53 = getelementptr inbounds i32, ptr %.val, i64 %52
  %54 = load i32, ptr %53, align 4, !tbaa !50
  %55 = tail call i32 (ptr, ...) @printf(ptr noundef nonnull dereferenceable(1) @.str.14, i32 noundef %54)
  %putchar19 = tail call i32 @putchar(i32 10)
  %indvars.iv.next = add nuw nsw i64 %indvars.iv, 1
  %exitcond.not = icmp eq i64 %indvars.iv.next, %wide.trip.count39
  br i1 %exitcond.not, label %._crit_edge28, label %.lr.ph27.split, !llvm.loop !165

._crit_edge28:                                    ; preds = %50, %._crit_edge.us, %4
  %putchar = tail call i32 @putchar(i32 10)
  ret void
}